; Function Attrs: nounwind uwtable
define ptr @l_Lean_Name_casesOn___override___rarg(ptr noundef %0, ptr noundef %1, ptr noundef %2, ptr noundef %3) local_unnamed_addr #0 {
  %5 = ptrtoint ptr %0 to i64
  %6 = and i64 %5, 1
  %.not.i45 = icmp eq i64 %6, 0
  br i1 %.not.i45, label %10, label %7

7:                                                ; preds = %4
  %8 = lshr i64 %5, 1
  %9 = trunc i64 %8 to i32
  br label %lean_obj_tag.exit

10:                                               ; preds = %4
  %11 = getelementptr i8, ptr %0, i64 4
  %.val.i = load i32, ptr %11, align 4
  %12 = lshr i32 %.val.i, 24
  br label %lean_obj_tag.exit

lean_obj_tag.exit:                                ; preds = %7, %10
  %.0.i = phi i32 [ %9, %7 ], [ %12, %10 ]
  switch i32 %.0.i, label %78 [
    i32 0, label %13
    i32 1, label %40
  ]

13:                                               ; preds = %lean_obj_tag.exit
  %14 = ptrtoint ptr %3 to i64
  %15 = and i64 %14, 1
  %.not63 = icmp eq i64 %15, 0
  br i1 %.not63, label %16, label %lean_dec.exit34

16:                                               ; preds = %13
  %17 = load i32, ptr %3, align 4, !tbaa !4
  %18 = icmp sgt i32 %17, 1
  br i1 %18, label %19, label %21, !prof !9

19:                                               ; preds = %16
  %20 = add nsw i32 %17, -1
  store i32 %20, ptr %3, align 4, !tbaa !4
  br label %lean_dec.exit34

21:                                               ; preds = %16
  %.not.i = icmp eq i32 %17, 0
  br i1 %.not.i, label %lean_dec.exit34, label %22

22:                                               ; preds = %21
  tail call void @lean_dec_ref_cold(ptr noundef nonnull %3) #11
  br label %lean_dec.exit34

lean_dec.exit34:                                  ; preds = %22, %21, %19, %13
  %23 = ptrtoint ptr %2 to i64
  %24 = and i64 %23, 1
  %.not64 = icmp eq i64 %24, 0
  br i1 %.not64, label %25, label %lean_dec.exit33

25:                                               ; preds = %lean_dec.exit34
  %26 = load i32, ptr %2, align 4, !tbaa !4
  %27 = icmp sgt i32 %26, 1
  br i1 %27, label %28, label %30, !prof !9

28:                                               ; preds = %25
  %29 = add nsw i32 %26, -1
  store i32 %29, ptr %2, align 4, !tbaa !4
  br label %lean_dec.exit33

30:                                               ; preds = %25
  %.not.i35 = icmp eq i32 %26, 0
  br i1 %.not.i35, label %lean_dec.exit33, label %31

31:                                               ; preds = %30
  tail call void @lean_dec_ref_cold(ptr noundef nonnull %2) #11
  br label %lean_dec.exit33

lean_dec.exit33:                                  ; preds = %31, %30, %28, %lean_dec.exit34
  %32 = ptrtoint ptr %1 to i64
  %33 = and i64 %32, 1
  %.not65 = icmp eq i64 %33, 0
  br i1 %.not65, label %34, label %lean_inc.exit29

34:                                               ; preds = %lean_dec.exit33
  %.val.i46 = load i32, ptr %1, align 4, !tbaa !4
  %35 = icmp sgt i32 %.val.i46, 0
  br i1 %35, label %36, label %38, !prof !9

36:                                               ; preds = %34
  %37 = add nuw i32 %.val.i46, 1
  store i32 %37, ptr %1, align 4, !tbaa !4
  br label %lean_inc.exit29

38:                                               ; preds = %34
  %.not.i47 = icmp eq i32 %.val.i46, 0
  br i1 %.not.i47, label %lean_inc.exit29, label %39

39:                                               ; preds = %38
  tail call void @lean_inc_ref_cold(ptr noundef nonnull %1) #11
  br label %lean_inc.exit29

40:                                               ; preds = %lean_obj_tag.exit
  %41 = ptrtoint ptr %3 to i64
  %42 = and i64 %41, 1
  %.not = icmp eq i64 %42, 0
  br i1 %.not, label %43, label %lean_dec.exit32

43:                                               ; preds = %40
  %44 = load i32, ptr %3, align 4, !tbaa !4
  %45 = icmp sgt i32 %44, 1
  br i1 %45, label %46, label %48, !prof !9

46:                                               ; preds = %43
  %47 = add nsw i32 %44, -1
  store i32 %47, ptr %3, align 4, !tbaa !4
  br label %lean_dec.exit32

48:                                               ; preds = %43
  %.not.i37 = icmp eq i32 %44, 0
  br i1 %.not.i37, label %lean_dec.exit32, label %49

49:                                               ; preds = %48
  tail call void @lean_dec_ref_cold(ptr noundef nonnull %3) #11
  br label %lean_dec.exit32

lean_dec.exit32:                                  ; preds = %49, %48, %46, %40
  %50 = getelementptr inbounds nuw i8, ptr %0, i64 8
  %51 = load ptr, ptr %50, align 8, !tbaa !10
  %52 = ptrtoint ptr %51 to i64
  %53 = and i64 %52, 1
  %.not60 = icmp eq i64 %53, 0
  br i1 %.not60, label %54, label %lean_inc.exit28

54:                                               ; preds = %lean_dec.exit32
  %.val.i48 = load i32, ptr %51, align 4, !tbaa !4
  %55 = icmp sgt i32 %.val.i48, 0
  br i1 %55, label %56, label %58, !prof !9

56:                                               ; preds = %54
  %57 = add nuw i32 %.val.i48, 1
  store i32 %57, ptr %51, align 4, !tbaa !4
  br label %lean_inc.exit28

58:                                               ; preds = %54
  %.not.i49 = icmp eq i32 %.val.i48, 0
  br i1 %.not.i49, label %lean_inc.exit28, label %59

59:                                               ; preds = %58
  tail call void @lean_inc_ref_cold(ptr noundef nonnull %51) #11
  br label %lean_inc.exit28

lean_inc.exit28:                                  ; preds = %59, %58, %56, %lean_dec.exit32
  %60 = getelementptr inbounds nuw i8, ptr %0, i64 16
  %61 = load ptr, ptr %60, align 8, !tbaa !10
  %62 = ptrtoint ptr %61 to i64
  %63 = and i64 %62, 1
  %.not61 = icmp eq i64 %63, 0
  br i1 %.not61, label %64, label %lean_inc.exit27

64:                                               ; preds = %lean_inc.exit28
  %.val.i51 = load i32, ptr %61, align 4, !tbaa !4
  %65 = icmp sgt i32 %.val.i51, 0
  br i1 %65, label %66, label %68, !prof !9

66:                                               ; preds = %64
  %67 = add nuw i32 %.val.i51, 1
  store i32 %67, ptr %61, align 4, !tbaa !4
  br label %lean_inc.exit27

68:                                               ; preds = %64
  %.not.i52 = icmp eq i32 %.val.i51, 0
  br i1 %.not.i52, label %lean_inc.exit27, label %69

69:                                               ; preds = %68
  tail call void @lean_inc_ref_cold(ptr noundef nonnull %61) #11
  br label %lean_inc.exit27

lean_inc.exit27:                                  ; preds = %69, %68, %66, %lean_inc.exit28
  br i1 %.not.i45, label %70, label %lean_dec.exit31

70:                                               ; preds = %lean_inc.exit27
  %71 = load i32, ptr %0, align 4, !tbaa !4
  %72 = icmp sgt i32 %71, 1
  br i1 %72, label %73, label %75, !prof !9

73:                                               ; preds = %70
  %74 = add nsw i32 %71, -1
  store i32 %74, ptr %0, align 4, !tbaa !4
  br label %lean_dec.exit31

75:                                               ; preds = %70
  %.not.i39 = icmp eq i32 %71, 0
  br i1 %.not.i39, label %lean_dec.exit31, label %76

76:                                               ; preds = %75
  tail call void @lean_dec_ref_cold(ptr noundef nonnull %0) #11
  br label %lean_dec.exit31

lean_dec.exit31:                                  ; preds = %76, %75, %73, %lean_inc.exit27
  %77 = tail call ptr @lean_apply_2(ptr noundef %2, ptr noundef %51, ptr noundef %61) #11
  br label %lean_inc.exit29

78:                                               ; preds = %lean_obj_tag.exit
  %79 = ptrtoint ptr %2 to i64
  %80 = and i64 %79, 1
  %.not66 = icmp eq i64 %80, 0
  br i1 %.not66, label %81, label %lean_dec.exit30

81:                                               ; preds = %78
  %82 = load i32, ptr %2, align 4, !tbaa !4
  %83 = icmp sgt i32 %82, 1
  br i1 %83, label %84, label %86, !prof !9

84:                                               ; preds = %81
  %85 = add nsw i32 %82, -1
  store i32 %85, ptr %2, align 4, !tbaa !4
  br label %lean_dec.exit30

86:                                               ; preds = %81
  %.not.i41 = icmp eq i32 %82, 0
  br i1 %.not.i41, label %lean_dec.exit30, label %87

87:                                               ; preds = %86
  tail call void @lean_dec_ref_cold(ptr noundef nonnull %2) #11
  br label %lean_dec.exit30

lean_dec.exit30:                                  ; preds = %87, %86, %84, %78
  %88 = getelementptr inbounds nuw i8, ptr %0, i64 8
  %89 = load ptr, ptr %88, align 8, !tbaa !10
  %90 = ptrtoint ptr %89 to i64
  %91 = and i64 %90, 1
  %.not67 = icmp eq i64 %91, 0
  br i1 %.not67, label %92, label %lean_inc.exit26

92:                                               ; preds = %lean_dec.exit30
  %.val.i54 = load i32, ptr %89, align 4, !tbaa !4
  %93 = icmp sgt i32 %.val.i54, 0
  br i1 %93, label %94, label %96, !prof !9

94:                                               ; preds = %92
  %95 = add nuw i32 %.val.i54, 1
  store i32 %95, ptr %89, align 4, !tbaa !4
  br label %lean_inc.exit26

96:                                               ; preds = %92
  %.not.i55 = icmp eq i32 %.val.i54, 0
  br i1 %.not.i55, label %lean_inc.exit26, label %97

97:                                               ; preds = %96
  tail call void @lean_inc_ref_cold(ptr noundef nonnull %89) #11
  br label %lean_inc.exit26

lean_inc.exit26:                                  ; preds = %97, %96, %94, %lean_dec.exit30
  %98 = getelementptr inbounds nuw i8, ptr %0, i64 16
  %99 = load ptr, ptr %98, align 8, !tbaa !10
  %100 = ptrtoint ptr %99 to i64
  %101 = and i64 %100, 1
  %.not68 = icmp eq i64 %101, 0
  br i1 %.not68, label %102, label %lean_inc.exit

102:                                              ; preds = %lean_inc.exit26
  %.val.i57 = load i32, ptr %99, align 4, !tbaa !4
  %103 = icmp sgt i32 %.val.i57, 0
  br i1 %103, label %104, label %106, !prof !9

104:                                              ; preds = %102
  %105 = add nuw i32 %.val.i57, 1
  store i32 %105, ptr %99, align 4, !tbaa !4
  br label %lean_inc.exit

106:                                              ; preds = %102
  %.not.i58 = icmp eq i32 %.val.i57, 0
  br i1 %.not.i58, label %lean_inc.exit, label %107

107:                                              ; preds = %106
  tail call void @lean_inc_ref_cold(ptr noundef nonnull %99) #11
  br label %lean_inc.exit

lean_inc.exit:                                    ; preds = %107, %106, %104, %lean_inc.exit26
  br i1 %.not.i45, label %108, label %lean_dec.exit

108:                                              ; preds = %lean_inc.exit
  %109 = load i32, ptr %0, align 4, !tbaa !4
  %110 = icmp sgt i32 %109, 1
  br i1 %110, label %111, label %113, !prof !9

111:                                              ; preds = %108
  %112 = add nsw i32 %109, -1
  store i32 %112, ptr %0, align 4, !tbaa !4
  br label %lean_dec.exit

113:                                              ; preds = %108
  %.not.i43 = icmp eq i32 %109, 0
  br i1 %.not.i43, label %lean_dec.exit, label %114

114:                                              ; preds = %113
  tail call void @lean_dec_ref_cold(ptr noundef nonnull %0) #11
  br label %lean_dec.exit

lean_dec.exit:                                    ; preds = %114, %113, %111, %lean_inc.exit
  %115 = tail call ptr @lean_apply_2(ptr noundef %3, ptr noundef %89, ptr noundef %99) #11
  br label %lean_inc.exit29

lean_inc.exit29:                                  ; preds = %lean_dec.exit33, %36, %38, %39, %lean_dec.exit, %lean_dec.exit31
  %.0 = phi ptr [ %115, %lean_dec.exit ], [ %77, %lean_dec.exit31 ], [ %1, %39 ], [ %1, %38 ], [ %1, %36 ], [ %1, %lean_dec.exit33 ]
  ret ptr %.0
}